; Function Attrs: mustprogress nounwind uwtable
define hidden void @_ZN25InterpreterMacroAssembler9store_ptrEi8Register(ptr noundef nonnull align 8 dereferenceable(48) %0, i32 noundef %1, i32 %2) local_unnamed_addr #0 align 2 {
  %4 = alloca %class.Address, align 16
  %5 = shl nsw i32 %1, 3
  store <4 x i32> <i32 4, i32 -1, i32 -1, i32 -1>, ptr %4, align 16
  %6 = getelementptr inbounds i8, ptr %4, i64 16
  store i32 %5, ptr %6, align 16
  %7 = getelementptr inbounds i8, ptr %4, i64 20
  store i8 0, ptr %7, align 4
  %8 = getelementptr inbounds i8, ptr %4, i64 24
  store ptr getelementptr inbounds inrange(-16, 72) (i8, ptr @_ZTV10Relocation, i64 16), ptr %8, align 8
  %9 = getelementptr inbounds i8, ptr %4, i64 32
  store ptr null, ptr %9, align 16
  %10 = getelementptr inbounds i8, ptr %4, i64 40
  store i32 0, ptr %10, align 8
  call void @_ZN14MacroAssembler6movptrE7Address8Register(ptr noundef nonnull align 8 dereferenceable(40) %0, ptr noundef nonnull %4, i32 %2) #8
  ret void
}